; ModuleID = 'source-C-CXX/18/951.c'
source_filename = "source-C-CXX/18/951.c"
target datalayout = "e-m:e-p270:32:32-p271:32:32-p272:64:64-i64:64-f80:128-n8:16:32:64-S128"
target triple = "x86_64-pc-linux-gnu"

@.str = private unnamed_addr constant [4 x i8] c"%s \00", align 1
@.str.1 = private unnamed_addr constant [3 x i8] c"%s\00", align 1

; Function Attrs: nounwind sspstrong uwtable
define dso_local i32 @main() local_unnamed_addr #0 {
  %1 = alloca [100 x i8], align 16
  %2 = alloca [100 x i8], align 16
  %3 = alloca [100 x i8], align 16
  %4 = alloca [100 x [100 x i8]], align 16
  %5 = getelementptr inbounds [100 x i8], [100 x i8]* %1, i64 0, i64 0
  call void @llvm.lifetime.start.p0i8(i64 100, i8* nonnull %5) #6
  %6 = getelementptr inbounds [100 x i8], [100 x i8]* %2, i64 0, i64 0
  call void @llvm.lifetime.start.p0i8(i64 100, i8* nonnull %6) #6
  %7 = getelementptr inbounds [100 x i8], [100 x i8]* %3, i64 0, i64 0
  call void @llvm.lifetime.start.p0i8(i64 100, i8* nonnull %7) #6
  %8 = getelementptr inbounds [100 x [100 x i8]], [100 x [100 x i8]]* %4, i64 0, i64 0, i64 0
  call void @llvm.lifetime.start.p0i8(i64 10000, i8* nonnull %8) #6
  %9 = call i32 (i8*, ...) bitcast (i32 (...)* @gets to i32 (i8*, ...)*)(i8* nonnull %5) #6
  %10 = call i32 (i8*, ...) bitcast (i32 (...)* @gets to i32 (i8*, ...)*)(i8* nonnull %6) #6
  %11 = call i32 (i8*, ...) bitcast (i32 (...)* @gets to i32 (i8*, ...)*)(i8* nonnull %7) #6
  %12 = call i64 @strlen(i8* noundef nonnull %5) #7
  %13 = trunc i64 %12 to i32
  %14 = icmp slt i32 %13, 0
  br i1 %14, label %43, label %15

15:                                               ; preds = %0
  %16 = add i64 %12, 1
  %17 = and i64 %16, 4294967295
  br label %22

18:                                               ; preds = %37
  %19 = icmp sgt i32 %39, 0
  br i1 %19, label %20, label %43

20:                                               ; preds = %18
  %21 = zext i32 %39 to i64
  br label %51

22:                                               ; preds = %15, %37
  %23 = phi i64 [ 0, %15 ], [ %41, %37 ]
  %24 = phi i32 [ 0, %15 ], [ %39, %37 ]
  %25 = phi i32 [ 0, %15 ], [ %40, %37 ]
  %26 = getelementptr inbounds [100 x i8], [100 x i8]* %1, i64 0, i64 %23
  %27 = load i8, i8* %26, align 1, !tbaa !5
  switch i8 %27, label %28 [
    i8 32, label %32
    i8 0, label %32
  ]

28:                                               ; preds = %22
  %29 = sext i32 %24 to i64
  %30 = sext i32 %25 to i64
  %31 = getelementptr inbounds [100 x [100 x i8]], [100 x [100 x i8]]* %4, i64 0, i64 %29, i64 %30
  store i8 %27, i8* %31, align 1, !tbaa !5
  br label %37

32:                                               ; preds = %22, %22
  %33 = sext i32 %24 to i64
  %34 = sext i32 %25 to i64
  %35 = getelementptr inbounds [100 x [100 x i8]], [100 x [100 x i8]]* %4, i64 0, i64 %33, i64 %34
  store i8 0, i8* %35, align 1, !tbaa !5
  %36 = add nsw i32 %24, 1
  br label %37

37:                                               ; preds = %28, %32
  %38 = phi i32 [ %25, %28 ], [ -1, %32 ]
  %39 = phi i32 [ %24, %28 ], [ %36, %32 ]
  %40 = add nsw i32 %38, 1
  %41 = add nuw nsw i64 %23, 1
  %42 = icmp eq i64 %41, %17
  br i1 %42, label %18, label %22, !llvm.loop !8

43:                                               ; preds = %18, %0
  %44 = phi i32 [ %39, %18 ], [ 0, %0 ]
  %45 = add i32 %44, -1
  br label %67

46:                                               ; preds = %58
  %47 = add i32 %39, -1
  %48 = icmp sgt i32 %39, 1
  br i1 %48, label %49, label %67

49:                                               ; preds = %46
  %50 = zext i32 %47 to i64
  br label %61

51:                                               ; preds = %20, %58
  %52 = phi i64 [ 0, %20 ], [ %59, %58 ]
  %53 = getelementptr inbounds [100 x [100 x i8]], [100 x [100 x i8]]* %4, i64 0, i64 %52, i64 0
  %54 = call i32 @strcmp(i8* noundef nonnull %53, i8* noundef nonnull %6) #7
  %55 = icmp eq i32 %54, 0
  br i1 %55, label %56, label %58

56:                                               ; preds = %51
  %57 = call i8* @strcpy(i8* noundef nonnull %53, i8* noundef nonnull %7) #6
  br label %58

58:                                               ; preds = %51, %56
  %59 = add nuw nsw i64 %52, 1
  %60 = icmp eq i64 %59, %21
  br i1 %60, label %46, label %51, !llvm.loop !10

61:                                               ; preds = %49, %61
  %62 = phi i64 [ 0, %49 ], [ %65, %61 ]
  %63 = getelementptr inbounds [100 x [100 x i8]], [100 x [100 x i8]]* %4, i64 0, i64 %62, i64 0
  %64 = call i32 (i8*, ...) @printf(i8* nonnull dereferenceable(1) getelementptr inbounds ([4 x i8], [4 x i8]* @.str, i64 0, i64 0), i8* nonnull %63)
  %65 = add nuw nsw i64 %62, 1
  %66 = icmp eq i64 %65, %50
  br i1 %66, label %67, label %61, !llvm.loop !11

67:                                               ; preds = %61, %43, %46
  %68 = phi i32 [ %45, %43 ], [ %47, %46 ], [ %47, %61 ]
  %69 = sext i32 %68 to i64
  %70 = getelementptr inbounds [100 x [100 x i8]], [100 x [100 x i8]]* %4, i64 0, i64 %69, i64 0
  %71 = call i32 (i8*, ...) @printf(i8* nonnull dereferenceable(1) getelementptr inbounds ([3 x i8], [3 x i8]* @.str.1, i64 0, i64 0), i8* nonnull %70)
  call void @llvm.lifetime.end.p0i8(i64 10000, i8* nonnull %8) #6
  call void @llvm.lifetime.end.p0i8(i64 100, i8* nonnull %7) #6
  call void @llvm.lifetime.end.p0i8(i64 100, i8* nonnull %6) #6
  call void @llvm.lifetime.end.p0i8(i64 100, i8* nonnull %5) #6
  ret i32 0
}

; Function Attrs: argmemonly mustprogress nofree nosync nounwind willreturn
declare void @llvm.lifetime.start.p0i8(i64 immarg, i8* nocapture) #1

declare i32 @gets(...) local_unnamed_addr #2

; Function Attrs: argmemonly mustprogress nofree nounwind readonly willreturn
declare i64 @strlen(i8* nocapture) local_unnamed_addr #3

; Function Attrs: argmemonly mustprogress nofree nounwind readonly willreturn
declare i32 @strcmp(i8* nocapture, i8* nocapture) local_unnamed_addr #3

; Function Attrs: argmemonly mustprogress nofree nounwind willreturn
declare i8* @strcpy(i8* noalias returned writeonly, i8* noalias nocapture readonly) local_unnamed_addr #4

; Function Attrs: nofree nounwind
declare noundef i32 @printf(i8* nocapture noundef readonly, ...) local_unnamed_addr #5

; Function Attrs: argmemonly mustprogress nofree nosync nounwind willreturn
declare void @llvm.lifetime.end.p0i8(i64 immarg, i8* nocapture) #1


!llvm.module.flags = !{!0, !1, !2, !3}
!llvm.ident = !{!4}

!0 = !{i32 1, !"wchar_size", i32 4}
!1 = !{i32 7, !"PIC Level", i32 2}
!2 = !{i32 7, !"PIE Level", i32 2}
!3 = !{i32 7, !"uwtable", i32 1}
!4 = !{!"clang version 13.0.0"}
!5 = !{!6, !6, i64 0}
!6 = !{!"omnipotent char", !7, i64 0}
!7 = !{!"Simple C/C++ TBAA"}
!8 = distinct !{!8, !9}
!9 = !{!"llvm.loop.mustprogress"}
!10 = distinct !{!10, !9}
!11 = distinct !{!11, !9}
